; Function Attrs: inlinehint mustprogress nounwind uwtable
define internal void @_ZN9grpc_core12_GLOBAL__N_16GrpcLb10Serverlist15AddressIteratorD2Ev(ptr noundef nonnull readonly align 8 captures(none) dereferenceable(24) %0) unnamed_addr #16 align 2 personality ptr @__gxx_personality_v0 {
  %2 = getelementptr inbounds nuw i8, ptr %0, i64 16
  %3 = load ptr, ptr %2, align 8, !tbaa !252
  %.not.i = icmp eq ptr %3, null
  br i1 %.not.i, label %_ZN9grpc_core13RefCountedPtrINS_17GrpcLbClientStatsEED2Ev.exit, label %4

4:                                                ; preds = %1
  %5 = getelementptr inbounds nuw i8, ptr %3, i64 8
  %6 = atomicrmw sub ptr %5, i64 1 acq_rel, align 8
  %7 = icmp eq i64 %6, 1
  br i1 %7, label %8, label %_ZN9grpc_core13RefCountedPtrINS_17GrpcLbClientStatsEED2Ev.exit, !prof !74

8:                                                ; preds = %4
  tail call void @_ZNK9grpc_core11UnrefDeleteclIKNS_17GrpcLbClientStatsEEEvPT_(ptr noundef nonnull align 8 dereferenceable(16) %3, ptr noundef nonnull align 8 dereferenceable(16) %3)
  br label %_ZN9grpc_core13RefCountedPtrINS_17GrpcLbClientStatsEED2Ev.exit

_ZN9grpc_core13RefCountedPtrINS_17GrpcLbClientStatsEED2Ev.exit: ; preds = %1, %4, %8
  %9 = getelementptr inbounds nuw i8, ptr %0, i64 8
  %.val = load ptr, ptr %9, align 8, !tbaa !204
  %.not.i1 = icmp eq ptr %.val, null
  br i1 %.not.i1, label %_ZN9grpc_core13RefCountedPtrINS_12_GLOBAL__N_16GrpcLb10ServerlistEED2Ev.exit, label %10

10:                                               ; preds = %_ZN9grpc_core13RefCountedPtrINS_17GrpcLbClientStatsEED2Ev.exit
  %11 = getelementptr inbounds nuw i8, ptr %.val, i64 8
  %12 = atomicrmw sub ptr %11, i64 1 acq_rel, align 8
  %13 = icmp eq i64 %12, 1
  br i1 %13, label %14, label %_ZN9grpc_core13RefCountedPtrINS_12_GLOBAL__N_16GrpcLb10ServerlistEED2Ev.exit, !prof !74

14:                                               ; preds = %10
  tail call fastcc void @_ZNK9grpc_core11UnrefDeleteclIKNS_12_GLOBAL__N_16GrpcLb10ServerlistEEEvPT_(ptr noundef nonnull align 8 dereferenceable(16) %.val)
  br label %_ZN9grpc_core13RefCountedPtrINS_12_GLOBAL__N_16GrpcLb10ServerlistEED2Ev.exit

_ZN9grpc_core13RefCountedPtrINS_12_GLOBAL__N_16GrpcLb10ServerlistEED2Ev.exit: ; preds = %_ZN9grpc_core13RefCountedPtrINS_17GrpcLbClientStatsEED2Ev.exit, %10, %14
  ret void
}